target datalayout = "e-m:e-p270:32:32-p271:32:32-p272:64:64-i64:64-i128:128-f80:128-n8:16:32:64-S128"
target triple = "x86_64-pc-linux-gnu"

%"class.zmq::msg_t" = type { %union.anon }
%union.anon = type { %struct.anon }
%struct.anon = type { ptr, [34 x i8], i8, i8, i32, %"union.zmq::msg_t::group_t" }
%"union.zmq::msg_t::group_t" = type { %struct.anon.1 }
%struct.anon.1 = type { i8, ptr }
%struct.anon.0 = type { i8, [15 x i8] }
%"struct.zmq::msg_t::content_t" = type { ptr, i64, ptr, ptr, %"class.zmq::atomic_counter_t" }
%"class.zmq::atomic_counter_t" = type { %"struct.std::atomic", [4 x i8] }
%"struct.std::atomic" = type { %"struct.std::__atomic_base" }
%"struct.std::__atomic_base" = type { i32 }
%struct.anon.4 = type { ptr, ptr, [26 x i8], i8, i8, i32, %"union.zmq::msg_t::group_t" }

@stderr = external global ptr, align 8
@.str = private unnamed_addr constant [30 x i8] c"Assertion failed: %s (%s:%d)\0A\00", align 1
@.str.1 = private unnamed_addr constant [14 x i8] c"NULL != data_\00", align 1
@.str.2 = private unnamed_addr constant [103 x i8] c"generated/home/dtcxzyw/WorkSpace/Projects/compilers/llvm-opt-benchmark/bench/libzmq/libzmq/src/msg.cpp\00", align 1
@.str.3 = private unnamed_addr constant [17 x i8] c"NULL != content_\00", align 1

; Function Attrs: mustprogress nounwind uwtable
define linkonce_odr void @_ZNSt13__atomic_baseIjEC2Ej(ptr noundef nonnull align 4 dereferenceable(4) %0, i32 noundef %1) unnamed_addr #0 comdat align 2 {
  %3 = alloca ptr, align 8
  %4 = alloca i32, align 4
  store ptr %0, ptr %3, align 8, !tbaa !35
  store i32 %1, ptr %4, align 4, !tbaa !14
  %5 = load ptr, ptr %3, align 8
  %6 = getelementptr inbounds nuw %"struct.std::__atomic_base", ptr %5, i32 0, i32 0
  %7 = load i32, ptr %4, align 4, !tbaa !14
  store i32 %7, ptr %6, align 4, !tbaa !37
  ret void
}

; Function Attrs: mustprogress nounwind uwtable
define linkonce_odr void @_ZNSt6atomicIjEC2Ej(ptr noundef nonnull align 4 dereferenceable(4) %0, i32 noundef %1) unnamed_addr #0 comdat align 2 {
  %3 = alloca ptr, align 8
  %4 = alloca i32, align 4
  store ptr %0, ptr %3, align 8, !tbaa !33
  store i32 %1, ptr %4, align 4, !tbaa !14
  %5 = load ptr, ptr %3, align 8
  %6 = load i32, ptr %4, align 4, !tbaa !14
  call void @_ZNSt13__atomic_baseIjEC2Ej(ptr noundef nonnull align 4 dereferenceable(4) %5, i32 noundef %6) #14
  ret void
}

; Function Attrs: mustprogress nounwind uwtable
define linkonce_odr void @_ZN3zmq16atomic_counter_tC2Ej(ptr noundef nonnull align 8 dereferenceable(4) %0, i32 noundef %1) unnamed_addr #0 comdat align 2 {
  %3 = alloca ptr, align 8
  %4 = alloca i32, align 4
  store ptr %0, ptr %3, align 8, !tbaa !26
  store i32 %1, ptr %4, align 4, !tbaa !14
  %5 = load ptr, ptr %3, align 8
  %6 = getelementptr inbounds nuw %"class.zmq::atomic_counter_t", ptr %5, i32 0, i32 0
  %7 = load i32, ptr %4, align 4, !tbaa !14
  call void @_ZNSt6atomicIjEC2Ej(ptr noundef nonnull align 4 dereferenceable(4) %6, i32 noundef %7) #14
  ret void
}

; Function Attrs: mustprogress uwtable
define noundef i32 @_ZN3zmq5msg_t21init_external_storageEPNS0_9content_tEPvmPFvS3_S3_ES3_(ptr noundef nonnull align 8 dereferenceable(64) %0, ptr noundef %1, ptr noundef %2, i64 noundef %3, ptr noundef %4, ptr noundef %5) #1 align 2 {
  %7 = alloca ptr, align 8
  %8 = alloca ptr, align 8
  %9 = alloca ptr, align 8
  %10 = alloca i64, align 8
  %11 = alloca ptr, align 8
  %12 = alloca ptr, align 8
  store ptr %0, ptr %7, align 8, !tbaa !3
  store ptr %1, ptr %8, align 8, !tbaa !12
  store ptr %2, ptr %9, align 8, !tbaa !9
  store i64 %3, ptr %10, align 8, !tbaa !10
  store ptr %4, ptr %11, align 8, !tbaa !9
  store ptr %5, ptr %12, align 8, !tbaa !9
  %13 = load ptr, ptr %7, align 8
  br label %14

14:                                               ; preds = %6
  %15 = load ptr, ptr %9, align 8, !tbaa !9
  %16 = icmp ne ptr null, %15
  %17 = xor i1 %16, true
  %18 = zext i1 %17 to i64
  %19 = call i64 @llvm.expect.i64(i64 %18, i64 0)
  %20 = icmp ne i64 %19, 0
  br i1 %20, label %21, label %26

21:                                               ; preds = %14
  %22 = load ptr, ptr @stderr, align 8, !tbaa !24
  %23 = call i32 (ptr, ptr, ...) @fprintf(ptr noundef %22, ptr noundef @.str, ptr noundef @.str.1, ptr noundef @.str.2, i32 noundef 117) #14
  %24 = load ptr, ptr @stderr, align 8, !tbaa !24
  %25 = call i32 @fflush(ptr noundef %24)
  call void @_ZN3zmq9zmq_abortEPKc(ptr noundef @.str.1)
  br label %26

26:                                               ; preds = %21, %14
  br label %27

27:                                               ; preds = %26
  br label %28

28:                                               ; preds = %27
  %29 = load ptr, ptr %8, align 8, !tbaa !12
  %30 = icmp ne ptr null, %29
  %31 = xor i1 %30, true
  %32 = zext i1 %31 to i64
  %33 = call i64 @llvm.expect.i64(i64 %32, i64 0)
  %34 = icmp ne i64 %33, 0
  br i1 %34, label %35, label %40

35:                                               ; preds = %28
  %36 = load ptr, ptr @stderr, align 8, !tbaa !24
  %37 = call i32 (ptr, ptr, ...) @fprintf(ptr noundef %36, ptr noundef @.str, ptr noundef @.str.3, ptr noundef @.str.2, i32 noundef 118) #14
  %38 = load ptr, ptr @stderr, align 8, !tbaa !24
  %39 = call i32 @fflush(ptr noundef %38)
  call void @_ZN3zmq9zmq_abortEPKc(ptr noundef @.str.3)
  br label %40

40:                                               ; preds = %35, %28
  br label %41

41:                                               ; preds = %40
  %42 = getelementptr inbounds nuw %"class.zmq::msg_t", ptr %13, i32 0, i32 0
  %43 = getelementptr inbounds nuw %struct.anon.4, ptr %42, i32 0, i32 0
  store ptr null, ptr %43, align 8, !tbaa !8
  %44 = getelementptr inbounds nuw %"class.zmq::msg_t", ptr %13, i32 0, i32 0
  %45 = getelementptr inbounds nuw %struct.anon.4, ptr %44, i32 0, i32 3
  store i8 105, ptr %45, align 2, !tbaa !8
  %46 = getelementptr inbounds nuw %"class.zmq::msg_t", ptr %13, i32 0, i32 0
  %47 = getelementptr inbounds nuw %struct.anon.4, ptr %46, i32 0, i32 4
  store i8 0, ptr %47, align 1, !tbaa !8
  %48 = getelementptr inbounds nuw %"class.zmq::msg_t", ptr %13, i32 0, i32 0
  %49 = getelementptr inbounds nuw %struct.anon.4, ptr %48, i32 0, i32 6
  %50 = getelementptr inbounds nuw %struct.anon.0, ptr %49, i32 0, i32 1
  %51 = getelementptr inbounds [15 x i8], ptr %50, i64 0, i64 0
  store i8 0, ptr %51, align 1, !tbaa !8
  %52 = getelementptr inbounds nuw %"class.zmq::msg_t", ptr %13, i32 0, i32 0
  %53 = getelementptr inbounds nuw %struct.anon.4, ptr %52, i32 0, i32 6
  store i8 0, ptr %53, align 8, !tbaa !8
  %54 = getelementptr inbounds nuw %"class.zmq::msg_t", ptr %13, i32 0, i32 0
  %55 = getelementptr inbounds nuw %struct.anon.4, ptr %54, i32 0, i32 5
  store i32 0, ptr %55, align 4, !tbaa !8
  %56 = load ptr, ptr %8, align 8, !tbaa !12
  %57 = getelementptr inbounds nuw %"class.zmq::msg_t", ptr %13, i32 0, i32 0
  %58 = getelementptr inbounds nuw %struct.anon.4, ptr %57, i32 0, i32 1
  store ptr %56, ptr %58, align 8, !tbaa !8
  %59 = load ptr, ptr %9, align 8, !tbaa !9
  %60 = getelementptr inbounds nuw %"class.zmq::msg_t", ptr %13, i32 0, i32 0
  %61 = getelementptr inbounds nuw %struct.anon.4, ptr %60, i32 0, i32 1
  %62 = load ptr, ptr %61, align 8, !tbaa !8
  %63 = getelementptr inbounds nuw %"struct.zmq::msg_t::content_t", ptr %62, i32 0, i32 0
  store ptr %59, ptr %63, align 8, !tbaa !16
  %64 = load i64, ptr %10, align 8, !tbaa !10
  %65 = getelementptr inbounds nuw %"class.zmq::msg_t", ptr %13, i32 0, i32 0
  %66 = getelementptr inbounds nuw %struct.anon.4, ptr %65, i32 0, i32 1
  %67 = load ptr, ptr %66, align 8, !tbaa !8
  %68 = getelementptr inbounds nuw %"struct.zmq::msg_t::content_t", ptr %67, i32 0, i32 1
  store i64 %64, ptr %68, align 8, !tbaa !21
  %69 = load ptr, ptr %11, align 8, !tbaa !9
  %70 = getelementptr inbounds nuw %"class.zmq::msg_t", ptr %13, i32 0, i32 0
  %71 = getelementptr inbounds nuw %struct.anon.4, ptr %70, i32 0, i32 1
  %72 = load ptr, ptr %71, align 8, !tbaa !8
  %73 = getelementptr inbounds nuw %"struct.zmq::msg_t::content_t", ptr %72, i32 0, i32 2
  store ptr %69, ptr %73, align 8, !tbaa !22
  %74 = load ptr, ptr %12, align 8, !tbaa !9
  %75 = getelementptr inbounds nuw %"class.zmq::msg_t", ptr %13, i32 0, i32 0
  %76 = getelementptr inbounds nuw %struct.anon.4, ptr %75, i32 0, i32 1
  %77 = load ptr, ptr %76, align 8, !tbaa !8
  %78 = getelementptr inbounds nuw %"struct.zmq::msg_t::content_t", ptr %77, i32 0, i32 3
  store ptr %74, ptr %78, align 8, !tbaa !23
  %79 = getelementptr inbounds nuw %"class.zmq::msg_t", ptr %13, i32 0, i32 0
  %80 = getelementptr inbounds nuw %struct.anon.4, ptr %79, i32 0, i32 1
  %81 = load ptr, ptr %80, align 8, !tbaa !8
  %82 = getelementptr inbounds nuw %"struct.zmq::msg_t::content_t", ptr %81, i32 0, i32 4
  call void @_ZN3zmq16atomic_counter_tC2Ej(ptr noundef nonnull align 8 dereferenceable(4) %82, i32 noundef 0) #14
  ret i32 0
}