; Function Attrs: mustprogress uwtable
define noundef i32 @_ZN3zmq5msg_t21init_external_storageEPNS0_9content_tEPvmPFvS3_S3_ES3_(ptr noundef nonnull align 8 captures(none) dereferenceable(64) initializes((0, 16), (42, 50)) %0, ptr noundef %1, ptr noundef %2, i64 noundef %3, ptr noundef %4, ptr noundef %5) local_unnamed_addr #1 align 2 {
  %.not = icmp eq ptr %2, null
  br i1 %.not, label %7, label %12, !prof !6

7:                                                ; preds = %6
  %8 = load ptr, ptr @stderr, align 8, !tbaa !7
  %9 = tail call i32 (ptr, ptr, ...) @fprintf(ptr noundef %8, ptr noundef nonnull @.str, ptr noundef nonnull @.str.1, ptr noundef nonnull @.str.2, i32 noundef 117) #20
  %10 = load ptr, ptr @stderr, align 8, !tbaa !7
  %11 = tail call i32 @fflush(ptr noundef %10)
  tail call void @_ZN3zmq9zmq_abortEPKc(ptr noundef nonnull @.str.1)
  br label %12

12:                                               ; preds = %7, %6
  %.not7 = icmp eq ptr %1, null
  br i1 %.not7, label %13, label %18, !prof !6

13:                                               ; preds = %12
  %14 = load ptr, ptr @stderr, align 8, !tbaa !7
  %15 = tail call i32 (ptr, ptr, ...) @fprintf(ptr noundef %14, ptr noundef nonnull @.str, ptr noundef nonnull @.str.3, ptr noundef nonnull @.str.2, i32 noundef 118) #20
  %16 = load ptr, ptr @stderr, align 8, !tbaa !7
  %17 = tail call i32 @fflush(ptr noundef %16)
  tail call void @_ZN3zmq9zmq_abortEPKc(ptr noundef nonnull @.str.3)
  br label %18

18:                                               ; preds = %12, %13
  store ptr null, ptr %0, align 8, !tbaa !3
  %19 = getelementptr inbounds nuw i8, ptr %0, i64 42
  store i8 105, ptr %19, align 2, !tbaa !3
  %20 = getelementptr inbounds nuw i8, ptr %0, i64 43
  %21 = getelementptr inbounds nuw i8, ptr %0, i64 8
  tail call void @llvm.memset.p0.i64(ptr noundef nonnull align 1 dereferenceable(7) %20, i8 0, i64 7, i1 false)
  store ptr %1, ptr %21, align 8, !tbaa !3
  store ptr %2, ptr %1, align 8, !tbaa !10
  %22 = load ptr, ptr %21, align 8, !tbaa !3
  %23 = getelementptr inbounds nuw i8, ptr %22, i64 8
  store i64 %3, ptr %23, align 8, !tbaa !17
  %24 = load ptr, ptr %21, align 8, !tbaa !3
  %25 = getelementptr inbounds nuw i8, ptr %24, i64 16
  store ptr %4, ptr %25, align 8, !tbaa !18
  %26 = load ptr, ptr %21, align 8, !tbaa !3
  %27 = getelementptr inbounds nuw i8, ptr %26, i64 24
  store ptr %5, ptr %27, align 8, !tbaa !19
  %28 = load ptr, ptr %21, align 8, !tbaa !3
  %29 = getelementptr inbounds nuw i8, ptr %28, i64 32
  store i32 0, ptr %29, align 4, !tbaa !20
  ret i32 0
}